; ModuleID = 'source-C-CXX/8/545.c'
source_filename = "source-C-CXX/8/545.c"
target datalayout = "e-m:e-p270:32:32-p271:32:32-p272:64:64-i64:64-f80:128-n8:16:32:64-S128"
target triple = "x86_64-pc-linux-gnu"

@.str = private unnamed_addr constant [3 x i8] c"%d\00", align 1
@.str.1 = private unnamed_addr constant [6 x i8] c"%s %d\00", align 1

; Function Attrs: nofree nounwind sspstrong uwtable
define dso_local i32 @main() local_unnamed_addr #0 {
  %1 = alloca i32, align 4
  %2 = alloca [10 x i8], align 1
  %3 = bitcast i32* %1 to i8*
  call void @llvm.lifetime.start.p0i8(i64 4, i8* nonnull %3) #6
  %4 = getelementptr inbounds [10 x i8], [10 x i8]* %2, i64 0, i64 0
  call void @llvm.lifetime.start.p0i8(i64 10, i8* nonnull %4) #6
  %5 = call i32 (i8*, ...) @__isoc99_scanf(i8* getelementptr inbounds ([3 x i8], [3 x i8]* @.str, i64 0, i64 0), i32* nonnull %1)
  %6 = load i32, i32* %1, align 4, !tbaa !5
  %7 = zext i32 %6 to i64
  %8 = call i8* @llvm.stacksave()
  %9 = alloca i32, i64 %7, align 16
  %10 = load i32, i32* %1, align 4, !tbaa !5
  %11 = zext i32 %10 to i64
  %12 = alloca [10 x i8], i64 %11, align 16
  %13 = icmp sgt i32 %10, 0
  br i1 %13, label %18, label %66

14:                                               ; preds = %18
  %15 = icmp sgt i32 %24, 1
  br i1 %15, label %16, label %27

16:                                               ; preds = %14
  %17 = zext i32 %24 to i64
  br label %29

18:                                               ; preds = %0, %18
  %19 = phi i64 [ %23, %18 ], [ 0, %0 ]
  %20 = getelementptr inbounds [10 x i8], [10 x i8]* %12, i64 %19, i64 0
  %21 = getelementptr inbounds i32, i32* %9, i64 %19
  %22 = call i32 (i8*, ...) @__isoc99_scanf(i8* getelementptr inbounds ([6 x i8], [6 x i8]* @.str.1, i64 0, i64 0), i8* nonnull %20, i32* nonnull %21)
  %23 = add nuw nsw i64 %19, 1
  %24 = load i32, i32* %1, align 4, !tbaa !5
  %25 = sext i32 %24 to i64
  %26 = icmp slt i64 %23, %25
  br i1 %26, label %18, label %14, !llvm.loop !9

27:                                               ; preds = %55, %14
  %28 = icmp sgt i32 %24, 0
  br i1 %28, label %58, label %66

29:                                               ; preds = %16, %55
  %30 = phi i64 [ 1, %16 ], [ %56, %55 ]
  %31 = getelementptr inbounds i32, i32* %9, i64 %30
  %32 = load i32, i32* %31, align 4, !tbaa !5
  %33 = icmp sgt i32 %32, 59
  br i1 %33, label %34, label %55

34:                                               ; preds = %29, %52
  %35 = phi i32 [ %54, %52 ], [ %32, %29 ]
  %36 = phi i64 [ %51, %52 ], [ %30, %29 ]
  %37 = add i64 %36, 4294967295
  %38 = and i64 %37, 4294967295
  %39 = getelementptr inbounds i32, i32* %9, i64 %38
  %40 = load i32, i32* %39, align 4, !tbaa !5
  %41 = icmp slt i32 %40, %35
  br i1 %41, label %42, label %49

42:                                               ; preds = %34
  %43 = getelementptr inbounds i32, i32* %9, i64 %36
  store i32 %40, i32* %43, align 4, !tbaa !5
  store i32 %35, i32* %39, align 4, !tbaa !5
  %44 = getelementptr inbounds [10 x i8], [10 x i8]* %12, i64 %36, i64 0
  %45 = call i8* @strcpy(i8* noundef nonnull %4, i8* noundef nonnull %44) #6
  %46 = getelementptr inbounds [10 x i8], [10 x i8]* %12, i64 %38, i64 0
  %47 = call i8* @strcpy(i8* noundef nonnull %44, i8* noundef nonnull %46) #6
  %48 = call i8* @strcpy(i8* noundef nonnull %46, i8* noundef nonnull %4) #6
  br label %49

49:                                               ; preds = %34, %42
  %50 = icmp sgt i64 %36, 1
  %51 = add nsw i64 %36, -1
  br i1 %50, label %52, label %55, !llvm.loop !11

52:                                               ; preds = %49
  %53 = getelementptr inbounds i32, i32* %9, i64 %51
  %54 = load i32, i32* %53, align 4, !tbaa !5
  br label %34

55:                                               ; preds = %49, %29
  %56 = add nuw nsw i64 %30, 1
  %57 = icmp eq i64 %56, %17
  br i1 %57, label %27, label %29, !llvm.loop !12

58:                                               ; preds = %27, %58
  %59 = phi i64 [ %62, %58 ], [ 0, %27 ]
  %60 = getelementptr inbounds [10 x i8], [10 x i8]* %12, i64 %59, i64 0
  %61 = call i32 @puts(i8* nonnull %60)
  %62 = add nuw nsw i64 %59, 1
  %63 = load i32, i32* %1, align 4, !tbaa !5
  %64 = sext i32 %63 to i64
  %65 = icmp slt i64 %62, %64
  br i1 %65, label %58, label %66, !llvm.loop !13

66:                                               ; preds = %58, %0, %27
  call void @llvm.stackrestore(i8* %8)
  call void @llvm.lifetime.end.p0i8(i64 10, i8* nonnull %4) #6
  call void @llvm.lifetime.end.p0i8(i64 4, i8* nonnull %3) #6
  ret i32 0
}

; Function Attrs: argmemonly mustprogress nofree nosync nounwind willreturn
declare void @llvm.lifetime.start.p0i8(i64 immarg, i8* nocapture) #1

; Function Attrs: nofree nounwind
declare noundef i32 @__isoc99_scanf(i8* nocapture noundef readonly, ...) local_unnamed_addr #2

; Function Attrs: mustprogress nofree nosync nounwind willreturn
declare i8* @llvm.stacksave() #3

; Function Attrs: argmemonly mustprogress nofree nounwind willreturn
declare i8* @strcpy(i8* noalias returned writeonly, i8* noalias nocapture readonly) local_unnamed_addr #4

; Function Attrs: mustprogress nofree nosync nounwind willreturn
declare void @llvm.stackrestore(i8*) #3

; Function Attrs: argmemonly mustprogress nofree nosync nounwind willreturn
declare void @llvm.lifetime.end.p0i8(i64 immarg, i8* nocapture) #1

; Function Attrs: nofree nounwind
declare noundef i32 @puts(i8* nocapture noundef readonly) local_unnamed_addr #5


!llvm.module.flags = !{!0, !1, !2, !3}
!llvm.ident = !{!4}

!0 = !{i32 1, !"wchar_size", i32 4}
!1 = !{i32 7, !"PIC Level", i32 2}
!2 = !{i32 7, !"PIE Level", i32 2}
!3 = !{i32 7, !"uwtable", i32 1}
!4 = !{!"clang version 13.0.0"}
!5 = !{!6, !6, i64 0}
!6 = !{!"int", !7, i64 0}
!7 = !{!"omnipotent char", !8, i64 0}
!8 = !{!"Simple C/C++ TBAA"}
!9 = distinct !{!9, !10}
!10 = !{!"llvm.loop.mustprogress"}
!11 = distinct !{!11, !10}
!12 = distinct !{!12, !10}
!13 = distinct !{!13, !10}
